; Function Attrs: nounwind uwtable
define ptr @l_Lean_Meta_withLetDecl___at_Lean_PrettyPrinter_Delaborator_SubExpr_withLetBody___spec__9___rarg___lambda__1___boxed(ptr noundef %0, ptr noundef %1, ptr noundef %2, ptr noundef %3, ptr noundef %4, ptr noundef %5, ptr noundef %6, ptr noundef %7, ptr noundef %8, ptr noundef %9, ptr noundef %10) #0 {
  %12 = ptrtoint ptr %4 to i64
  %13 = and i64 %12, 1
  %.not = icmp eq i64 %13, 0
  br i1 %.not, label %14, label %lean_dec.exit

14:                                               ; preds = %11
  %15 = load i32, ptr %4, align 4, !tbaa !9
  %16 = icmp sgt i32 %15, 1
  br i1 %16, label %17, label %19, !prof !12

17:                                               ; preds = %14
  %18 = add nsw i32 %15, -1
  store i32 %18, ptr %4, align 4, !tbaa !9
  br label %lean_dec.exit

19:                                               ; preds = %14
  %.not.i = icmp eq i32 %15, 0
  br i1 %.not.i, label %lean_dec.exit, label %20

20:                                               ; preds = %19
  tail call void @lean_dec_ref_cold(ptr noundef nonnull %4) #5
  br label %lean_dec.exit

lean_dec.exit:                                    ; preds = %20, %19, %17, %11
  tail call void @lean_inc_heartbeat() #5
  %21 = tail call noalias ptr @mi_malloc_small(i64 noundef 40) #5
  %22 = icmp eq ptr %21, null
  br i1 %22, label %23, label %l_Lean_Meta_withLetDecl___at_Lean_PrettyPrinter_Delaborator_SubExpr_withLetBody___spec__9___rarg___lambda__1.exit

23:                                               ; preds = %lean_dec.exit
  tail call void @lean_internal_panic_out_of_memory() #6
  unreachable

l_Lean_Meta_withLetDecl___at_Lean_PrettyPrinter_Delaborator_SubExpr_withLetBody___spec__9___rarg___lambda__1.exit: ; preds = %lean_dec.exit
  %24 = lshr i64 %12, 1
  %25 = trunc i64 %24 to i8
  %26 = getelementptr inbounds nuw i8, ptr %21, i64 4
  store i32 1, ptr %21, align 4, !tbaa !9
  store i32 -184549336, ptr %26, align 4
  %27 = getelementptr inbounds nuw i8, ptr %21, i64 8
  store ptr @l_Lean_Meta_withLocalDecl___at_Lean_PrettyPrinter_Delaborator_SubExpr_withBindingBody_x27___spec__1___rarg___lambda__1, ptr %27, align 8, !tbaa !5
  %28 = getelementptr inbounds nuw i8, ptr %21, i64 16
  store i16 8, ptr %28, align 8, !tbaa !17
  %29 = getelementptr inbounds nuw i8, ptr %21, i64 18
  store i16 2, ptr %29, align 2, !tbaa !17
  %30 = getelementptr inbounds nuw i8, ptr %21, i64 24
  store ptr %0, ptr %30, align 8, !tbaa !5
  %31 = getelementptr inbounds nuw i8, ptr %21, i64 32
  store ptr %5, ptr %31, align 8, !tbaa !5
  %32 = tail call ptr @l___private_Lean_Meta_Basic_0__Lean_Meta_withLetDeclImp___rarg(ptr noundef %1, ptr noundef %2, ptr noundef %3, ptr noundef nonnull %21, i8 noundef zeroext %25, ptr noundef %6, ptr noundef %7, ptr noundef %8, ptr noundef %9, ptr noundef %10) #5
  ret ptr %32
}